; ModuleID = '53/1573.c'
source_filename = "53/1573.c"
target datalayout = "e-m:e-p270:32:32-p271:32:32-p272:64:64-i64:64-f80:128-n8:16:32:64-S128"
target triple = "x86_64-pc-linux-gnu"

@.str = private unnamed_addr constant [3 x i8] c"%d\00", align 1
@.str.1 = private unnamed_addr constant [2 x i8] c",\00", align 1

; Function Attrs: noinline nounwind uwtable
define dso_local i32 @main() #0 {
  %1 = alloca i32, align 4
  %2 = alloca i32, align 4
  %3 = alloca [500 x i32], align 16
  %4 = alloca i32, align 4
  %5 = alloca i32, align 4
  %6 = alloca i32, align 4
  %7 = alloca i32, align 4
  %8 = alloca i32, align 4
  %9 = alloca i32, align 4
  %10 = alloca i32, align 4
  %11 = alloca i32, align 4
  %12 = alloca i32, align 4
  %13 = alloca i32, align 4
  store i32 0, i32* %1, align 4
  store i32 1, i32* %4, align 4
  store i32 1, i32* %7, align 4
  store i32 0, i32* %8, align 4
  store i32 2, i32* %9, align 4
  store i32 1, i32* %10, align 4
  store i32 1, i32* %11, align 4
  store i32 2, i32* %12, align 4
  store i32 2, i32* %13, align 4
  %14 = call i32 (i8*, ...) @__isoc99_scanf(i8* getelementptr inbounds ([3 x i8], [3 x i8]* @.str, i64 0, i64 0), i32* %2)
  br label %15

15:                                               ; preds = %19, %0
  %16 = load i32, i32* %4, align 4
  %17 = load i32, i32* %2, align 4
  %18 = icmp sle i32 %16, %17
  br i1 %18, label %19, label %26

19:                                               ; preds = %15
  %20 = load i32, i32* %4, align 4
  %21 = sext i32 %20 to i64
  %22 = getelementptr inbounds [500 x i32], [500 x i32]* %3, i64 0, i64 %21
  %23 = call i32 (i8*, ...) @__isoc99_scanf(i8* getelementptr inbounds ([3 x i8], [3 x i8]* @.str, i64 0, i64 0), i32* %22)
  %24 = load i32, i32* %4, align 4
  %25 = add nsw i32 %24, 1
  store i32 %25, i32* %4, align 4
  br label %15

26:                                               ; preds = %15
  %27 = load i32, i32* %4, align 4
  %28 = sub nsw i32 %27, 2
  store i32 %28, i32* %4, align 4
  %29 = load i32, i32* %4, align 4
  store i32 %29, i32* %6, align 4
  br label %30

30:                                               ; preds = %76, %26
  %31 = load i32, i32* %11, align 4
  %32 = load i32, i32* %6, align 4
  %33 = add nsw i32 %32, 1
  %34 = icmp sle i32 %31, %33
  br i1 %34, label %35, label %83

35:                                               ; preds = %30
  br label %36

36:                                               ; preds = %75, %35
  %37 = load i32, i32* %9, align 4
  %38 = load i32, i32* %6, align 4
  %39 = add nsw i32 %38, 1
  %40 = icmp sle i32 %37, %39
  br i1 %40, label %41, label %76

41:                                               ; preds = %36
  %42 = load i32, i32* %11, align 4
  %43 = sext i32 %42 to i64
  %44 = getelementptr inbounds [500 x i32], [500 x i32]* %3, i64 0, i64 %43
  %45 = load i32, i32* %44, align 4
  %46 = load i32, i32* %9, align 4
  %47 = sext i32 %46 to i64
  %48 = getelementptr inbounds [500 x i32], [500 x i32]* %3, i64 0, i64 %47
  %49 = load i32, i32* %48, align 4
  %50 = icmp eq i32 %45, %49
  br i1 %50, label %51, label %72

51:                                               ; preds = %41
  %52 = load i32, i32* %9, align 4
  store i32 %52, i32* %12, align 4
  br label %53

53:                                               ; preds = %57, %51
  %54 = load i32, i32* %12, align 4
  %55 = load i32, i32* %6, align 4
  %56 = icmp sle i32 %54, %55
  br i1 %56, label %57, label %68

57:                                               ; preds = %53
  %58 = load i32, i32* %12, align 4
  %59 = add nsw i32 %58, 1
  %60 = sext i32 %59 to i64
  %61 = getelementptr inbounds [500 x i32], [500 x i32]* %3, i64 0, i64 %60
  %62 = load i32, i32* %61, align 4
  %63 = load i32, i32* %12, align 4
  %64 = sext i32 %63 to i64
  %65 = getelementptr inbounds [500 x i32], [500 x i32]* %3, i64 0, i64 %64
  store i32 %62, i32* %65, align 4
  %66 = load i32, i32* %12, align 4
  %67 = add nsw i32 %66, 1
  store i32 %67, i32* %12, align 4
  br label %53

68:                                               ; preds = %53
  %69 = load i32, i32* %6, align 4
  %70 = sub nsw i32 %69, 1
  store i32 %70, i32* %6, align 4
  %71 = load i32, i32* %9, align 4
  store i32 %71, i32* %9, align 4
  br label %75

72:                                               ; preds = %41
  %73 = load i32, i32* %9, align 4
  %74 = add nsw i32 %73, 1
  store i32 %74, i32* %9, align 4
  br label %75

75:                                               ; preds = %72, %68
  br label %36

76:                                               ; preds = %36
  %77 = load i32, i32* %11, align 4
  %78 = add nsw i32 %77, 1
  store i32 %78, i32* %11, align 4
  %79 = load i32, i32* %13, align 4
  %80 = add nsw i32 %79, 1
  store i32 %80, i32* %13, align 4
  %81 = load i32, i32* %13, align 4
  store i32 %81, i32* %9, align 4
  %82 = load i32, i32* %13, align 4
  store i32 %82, i32* %12, align 4
  br label %30

83:                                               ; preds = %30
  br label %84

84:                                               ; preds = %103, %83
  %85 = load i32, i32* %7, align 4
  %86 = load i32, i32* %6, align 4
  %87 = add nsw i32 %86, 1
  %88 = icmp sle i32 %85, %87
  br i1 %88, label %89, label %106

89:                                               ; preds = %84
  %90 = load i32, i32* %7, align 4
  %91 = sext i32 %90 to i64
  %92 = getelementptr inbounds [500 x i32], [500 x i32]* %3, i64 0, i64 %91
  %93 = load i32, i32* %92, align 4
  %94 = call i32 (i8*, ...) @printf(i8* getelementptr inbounds ([3 x i8], [3 x i8]* @.str, i64 0, i64 0), i32 %93)
  %95 = load i32, i32* %8, align 4
  %96 = add nsw i32 %95, 1
  store i32 %96, i32* %8, align 4
  %97 = load i32, i32* %8, align 4
  %98 = load i32, i32* %6, align 4
  %99 = add nsw i32 %98, 1
  %100 = icmp ne i32 %97, %99
  br i1 %100, label %101, label %103

101:                                              ; preds = %89
  %102 = call i32 (i8*, ...) @printf(i8* getelementptr inbounds ([2 x i8], [2 x i8]* @.str.1, i64 0, i64 0))
  br label %103

103:                                              ; preds = %101, %89
  %104 = load i32, i32* %7, align 4
  %105 = add nsw i32 %104, 1
  store i32 %105, i32* %7, align 4
  br label %84

106:                                              ; preds = %84
  ret i32 0
}

declare dso_local i32 @__isoc99_scanf(i8*, ...) #1

declare dso_local i32 @printf(i8*, ...) #1


!llvm.module.flags = !{!0}
!llvm.ident = !{!1}

!0 = !{i32 1, !"wchar_size", i32 4}
!1 = !{!"clang version 10.0.0-4ubuntu1 "}
